; Function Attrs: mustprogress uwtable
define hidden void @_ZN3smt8qi_queue24display_instance_profileEPNS_11fingerprintEP10quantifierjPKPNS_5enodeEjj(ptr noundef nonnull readonly align 8 captures(none) dereferenceable(1048) %0, ptr noundef readonly captures(none) %1, ptr readnone captures(none) %2, i32 %3, ptr readnone captures(none) %4, i32 noundef %5, i32 noundef %6) local_unnamed_addr #4 align 2 {
  %8 = getelementptr inbounds nuw i8, ptr %0, i64 16
  %9 = load ptr, ptr %8, align 8, !tbaa !509
  %10 = getelementptr inbounds nuw i8, ptr %9, i64 912
  %11 = load ptr, ptr %10, align 8, !tbaa !683
  %.not = icmp eq ptr %11, null
  br i1 %.not, label %42, label %12

12:                                               ; preds = %7
  %13 = getelementptr inbounds nuw i8, ptr %11, i64 16
  %14 = tail call noundef nonnull align 8 dereferenceable(8) ptr @_ZSt16__ostream_insertIcSt11char_traitsIcEERSt13basic_ostreamIT_T0_ES6_PKS3_l(ptr noundef nonnull align 8 dereferenceable(8) %13, ptr noundef nonnull @.str.26, i64 noundef 11)
  %15 = getelementptr inbounds nuw i8, ptr %1, i64 8
  %16 = load i32, ptr %15, align 8, !tbaa !706
  %17 = zext i32 %16 to i64
  %18 = tail call noundef nonnull align 8 dereferenceable(8) ptr @_ZNSo9_M_insertImEERSoT_(ptr noundef nonnull align 8 dereferenceable(8) %13, i64 noundef %17)
  %19 = load ptr, ptr %8, align 8, !tbaa !509
  %20 = getelementptr inbounds nuw i8, ptr %19, i64 712
  %21 = load i32, ptr %20, align 8, !tbaa !697
  %.not3 = icmp eq i32 %21, 0
  br i1 %.not3, label %29, label %22

22:                                               ; preds = %12
  %23 = getelementptr inbounds nuw i8, ptr %19, i64 912
  %24 = load ptr, ptr %23, align 8, !tbaa !683
  %25 = getelementptr inbounds nuw i8, ptr %24, i64 16
  %26 = tail call noundef nonnull align 8 dereferenceable(8) ptr @_ZSt16__ostream_insertIcSt11char_traitsIcEERSt13basic_ostreamIT_T0_ES6_PKS3_l(ptr noundef nonnull align 8 dereferenceable(8) %25, ptr noundef nonnull @.str.27, i64 noundef 2)
  %27 = zext i32 %5 to i64
  %28 = tail call noundef nonnull align 8 dereferenceable(8) ptr @_ZNSo9_M_insertImEERSoT_(ptr noundef nonnull align 8 dereferenceable(8) %25, i64 noundef %27)
  %.pre = load ptr, ptr %8, align 8, !tbaa !509
  br label %29

29:                                               ; preds = %22, %12
  %30 = phi ptr [ %.pre, %22 ], [ %19, %12 ]
  %31 = getelementptr inbounds nuw i8, ptr %30, i64 912
  %32 = load ptr, ptr %31, align 8, !tbaa !683
  %33 = getelementptr inbounds nuw i8, ptr %32, i64 16
  %34 = tail call noundef nonnull align 8 dereferenceable(8) ptr @_ZSt16__ostream_insertIcSt11char_traitsIcEERSt13basic_ostreamIT_T0_ES6_PKS3_l(ptr noundef nonnull align 8 dereferenceable(8) %33, ptr noundef nonnull @.str.28, i64 noundef 3)
  %35 = zext i32 %6 to i64
  %36 = tail call noundef nonnull align 8 dereferenceable(8) ptr @_ZNSo9_M_insertImEERSoT_(ptr noundef nonnull align 8 dereferenceable(8) %33, i64 noundef %35)
  %37 = load ptr, ptr %8, align 8, !tbaa !509
  %38 = getelementptr inbounds nuw i8, ptr %37, i64 912
  %39 = load ptr, ptr %38, align 8, !tbaa !683
  %40 = getelementptr inbounds nuw i8, ptr %39, i64 16
  %41 = tail call noundef nonnull align 8 dereferenceable(8) ptr @_ZSt16__ostream_insertIcSt11char_traitsIcEERSt13basic_ostreamIT_T0_ES6_PKS3_l(ptr noundef nonnull align 8 dereferenceable(8) %40, ptr noundef nonnull @.str.29, i64 noundef 1)
  br label %42

42:                                               ; preds = %29, %7
  ret void
}